target datalayout = "e-m:e-p270:32:32-p271:32:32-p272:64:64-i64:64-i128:128-f80:128-n8:16:32:64-S128"
target triple = "x86_64-pc-linux-gnu"

@.str.4 = private unnamed_addr constant [34 x i8] c"../openssl/test/threadpool_test.c\00", align 1
@.str.9 = private unnamed_addr constant [2 x i8] c"t\00", align 1
@.str.11 = private unnamed_addr constant [2 x i8] c"1\00", align 1
@.str.15 = private unnamed_addr constant [35 x i8] c"ossl_crypto_thread_native_clean(t)\00", align 1
@.str.17 = private unnamed_addr constant [3 x i8] c"t1\00", align 1
@.str.18 = private unnamed_addr constant [3 x i8] c"t2\00", align 1
@.str.19 = private unnamed_addr constant [41 x i8] c"ossl_crypto_thread_native_join(t2, NULL)\00", align 1
@.str.20 = private unnamed_addr constant [41 x i8] c"ossl_crypto_thread_native_join(t1, NULL)\00", align 1
@.str.21 = private unnamed_addr constant [36 x i8] c"ossl_crypto_thread_native_clean(t2)\00", align 1
@.str.22 = private unnamed_addr constant [36 x i8] c"ossl_crypto_thread_native_clean(t1)\00", align 1

; Function Attrs: nounwind uwtable
define internal i32 @test_thread_native_multiple_joins() #0 {
  %1 = alloca i32, align 4
  %2 = alloca ptr, align 8
  %3 = alloca ptr, align 8
  %4 = alloca ptr, align 8
  %5 = alloca i32, align 4
  call void @llvm.lifetime.start.p0(i64 8, ptr %2) #4
  call void @llvm.lifetime.start.p0(i64 8, ptr %3) #4
  call void @llvm.lifetime.start.p0(i64 8, ptr %4) #4
  %6 = call ptr @ossl_crypto_thread_native_start(ptr noundef @test_thread_native_multiple_joins_fn1, ptr noundef null, i32 noundef 1)
  store ptr %6, ptr %2, align 8, !tbaa !8
  %7 = load ptr, ptr %2, align 8, !tbaa !8
  %8 = call ptr @ossl_crypto_thread_native_start(ptr noundef @test_thread_native_multiple_joins_fn2, ptr noundef %7, i32 noundef 1)
  store ptr %8, ptr %3, align 8, !tbaa !8
  %9 = load ptr, ptr %2, align 8, !tbaa !8
  %10 = call ptr @ossl_crypto_thread_native_start(ptr noundef @test_thread_native_multiple_joins_fn3, ptr noundef %9, i32 noundef 1)
  store ptr %10, ptr %4, align 8, !tbaa !8
  %11 = load ptr, ptr %2, align 8, !tbaa !8
  %12 = call i32 @test_ptr(ptr noundef @.str.4, i32 noundef 273, ptr noundef @.str.9, ptr noundef %11)
  %13 = icmp ne i32 %12, 0
  br i1 %13, label %14, label %22

14:                                               ; preds = %0
  %15 = load ptr, ptr %3, align 8, !tbaa !8
  %16 = call i32 @test_ptr(ptr noundef @.str.4, i32 noundef 273, ptr noundef @.str.17, ptr noundef %15)
  %17 = icmp ne i32 %16, 0
  br i1 %17, label %18, label %22

18:                                               ; preds = %14
  %19 = load ptr, ptr %4, align 8, !tbaa !8
  %20 = call i32 @test_ptr(ptr noundef @.str.4, i32 noundef 273, ptr noundef @.str.18, ptr noundef %19)
  %21 = icmp ne i32 %20, 0
  br i1 %21, label %23, label %22

22:                                               ; preds = %18, %14, %0
  store i32 0, ptr %1, align 4
  store i32 1, ptr %5, align 4
  br label %54

23:                                               ; preds = %18
  %24 = load ptr, ptr %4, align 8, !tbaa !8
  %25 = call i32 @ossl_crypto_thread_native_join(ptr noundef %24, ptr noundef null)
  %26 = call i32 @test_int_eq(ptr noundef @.str.4, i32 noundef 276, ptr noundef @.str.19, ptr noundef @.str.11, i32 noundef %25, i32 noundef 1)
  %27 = icmp ne i32 %26, 0
  br i1 %27, label %29, label %28

28:                                               ; preds = %23
  store i32 0, ptr %1, align 4
  store i32 1, ptr %5, align 4
  br label %54

29:                                               ; preds = %23
  %30 = load ptr, ptr %3, align 8, !tbaa !8
  %31 = call i32 @ossl_crypto_thread_native_join(ptr noundef %30, ptr noundef null)
  %32 = call i32 @test_int_eq(ptr noundef @.str.4, i32 noundef 278, ptr noundef @.str.20, ptr noundef @.str.11, i32 noundef %31, i32 noundef 1)
  %33 = icmp ne i32 %32, 0
  br i1 %33, label %35, label %34

34:                                               ; preds = %29
  store i32 0, ptr %1, align 4
  store i32 1, ptr %5, align 4
  br label %54

35:                                               ; preds = %29
  %36 = load ptr, ptr %4, align 8, !tbaa !8
  %37 = call i32 @ossl_crypto_thread_native_clean(ptr noundef %36)
  %38 = call i32 @test_int_eq(ptr noundef @.str.4, i32 noundef 281, ptr noundef @.str.21, ptr noundef @.str.11, i32 noundef %37, i32 noundef 1)
  %39 = icmp ne i32 %38, 0
  br i1 %39, label %41, label %40

40:                                               ; preds = %35
  store i32 0, ptr %1, align 4
  store i32 1, ptr %5, align 4
  br label %54

41:                                               ; preds = %35
  %42 = load ptr, ptr %3, align 8, !tbaa !8
  %43 = call i32 @ossl_crypto_thread_native_clean(ptr noundef %42)
  %44 = call i32 @test_int_eq(ptr noundef @.str.4, i32 noundef 284, ptr noundef @.str.22, ptr noundef @.str.11, i32 noundef %43, i32 noundef 1)
  %45 = icmp ne i32 %44, 0
  br i1 %45, label %47, label %46

46:                                               ; preds = %41
  store i32 0, ptr %1, align 4
  store i32 1, ptr %5, align 4
  br label %54

47:                                               ; preds = %41
  %48 = load ptr, ptr %2, align 8, !tbaa !8
  %49 = call i32 @ossl_crypto_thread_native_clean(ptr noundef %48)
  %50 = call i32 @test_int_eq(ptr noundef @.str.4, i32 noundef 287, ptr noundef @.str.15, ptr noundef @.str.11, i32 noundef %49, i32 noundef 1)
  %51 = icmp ne i32 %50, 0
  br i1 %51, label %53, label %52

52:                                               ; preds = %47
  store i32 0, ptr %1, align 4
  store i32 1, ptr %5, align 4
  br label %54

53:                                               ; preds = %47
  store i32 1, ptr %1, align 4
  store i32 1, ptr %5, align 4
  br label %54

54:                                               ; preds = %53, %52, %46, %40, %34, %28, %22
  call void @llvm.lifetime.end.p0(i64 8, ptr %4) #4
  call void @llvm.lifetime.end.p0(i64 8, ptr %3) #4
  call void @llvm.lifetime.end.p0(i64 8, ptr %2) #4
  %55 = load i32, ptr %1, align 4
  ret i32 %55
}