; Function Attrs: nounwind uwtable
define internal range(i32 0, 2) i32 @test_thread_native_multiple_joins() #0 {
  %1 = tail call ptr @ossl_crypto_thread_native_start(ptr noundef nonnull @test_thread_native_multiple_joins_fn1, ptr noundef null, i32 noundef 1) #6
  %2 = tail call ptr @ossl_crypto_thread_native_start(ptr noundef nonnull @test_thread_native_multiple_joins_fn2, ptr noundef %1, i32 noundef 1) #6
  %3 = tail call ptr @ossl_crypto_thread_native_start(ptr noundef nonnull @test_thread_native_multiple_joins_fn3, ptr noundef %1, i32 noundef 1) #6
  %4 = tail call i32 @test_ptr(ptr noundef nonnull @.str.4, i32 noundef 273, ptr noundef nonnull @.str.9, ptr noundef %1) #6
  %.not = icmp eq i32 %4, 0
  br i1 %.not, label %24, label %5

5:                                                ; preds = %0
  %6 = tail call i32 @test_ptr(ptr noundef nonnull @.str.4, i32 noundef 273, ptr noundef nonnull @.str.17, ptr noundef %2) #6
  %.not10 = icmp eq i32 %6, 0
  br i1 %.not10, label %24, label %7

7:                                                ; preds = %5
  %8 = tail call i32 @test_ptr(ptr noundef nonnull @.str.4, i32 noundef 273, ptr noundef nonnull @.str.18, ptr noundef %3) #6
  %.not11 = icmp eq i32 %8, 0
  br i1 %.not11, label %24, label %9

9:                                                ; preds = %7
  %10 = tail call i32 @ossl_crypto_thread_native_join(ptr noundef %3, ptr noundef null) #6
  %11 = tail call i32 @test_int_eq(ptr noundef nonnull @.str.4, i32 noundef 276, ptr noundef nonnull @.str.19, ptr noundef nonnull @.str.11, i32 noundef %10, i32 noundef 1) #6
  %.not12 = icmp eq i32 %11, 0
  br i1 %.not12, label %24, label %12

12:                                               ; preds = %9
  %13 = tail call i32 @ossl_crypto_thread_native_join(ptr noundef %2, ptr noundef null) #6
  %14 = tail call i32 @test_int_eq(ptr noundef nonnull @.str.4, i32 noundef 278, ptr noundef nonnull @.str.20, ptr noundef nonnull @.str.11, i32 noundef %13, i32 noundef 1) #6
  %.not13 = icmp eq i32 %14, 0
  br i1 %.not13, label %24, label %15

15:                                               ; preds = %12
  %16 = tail call i32 @ossl_crypto_thread_native_clean(ptr noundef %3) #6
  %17 = tail call i32 @test_int_eq(ptr noundef nonnull @.str.4, i32 noundef 281, ptr noundef nonnull @.str.21, ptr noundef nonnull @.str.11, i32 noundef %16, i32 noundef 1) #6
  %.not14 = icmp eq i32 %17, 0
  br i1 %.not14, label %24, label %18

18:                                               ; preds = %15
  %19 = tail call i32 @ossl_crypto_thread_native_clean(ptr noundef %2) #6
  %20 = tail call i32 @test_int_eq(ptr noundef nonnull @.str.4, i32 noundef 284, ptr noundef nonnull @.str.22, ptr noundef nonnull @.str.11, i32 noundef %19, i32 noundef 1) #6
  %.not15 = icmp eq i32 %20, 0
  br i1 %.not15, label %24, label %21

21:                                               ; preds = %18
  %22 = tail call i32 @ossl_crypto_thread_native_clean(ptr noundef %1) #6
  %23 = tail call i32 @test_int_eq(ptr noundef nonnull @.str.4, i32 noundef 287, ptr noundef nonnull @.str.15, ptr noundef nonnull @.str.11, i32 noundef %22, i32 noundef 1) #6
  %.not16 = icmp ne i32 %23, 0
  %. = zext i1 %.not16 to i32
  br label %24

24:                                               ; preds = %21, %18, %15, %12, %9, %0, %5, %7
  %.0 = phi i32 [ 0, %7 ], [ 0, %5 ], [ 0, %0 ], [ 0, %9 ], [ 0, %12 ], [ 0, %15 ], [ 0, %18 ], [ %., %21 ]
  ret i32 %.0
}